target datalayout = "e-m:e-p270:32:32-p271:32:32-p272:64:64-i64:64-i128:128-f80:128-n8:16:32:64-S128"
target triple = "x86_64-pc-linux-gnu"

%struct.Ivy_Obj_t_ = type { i32, i32, i32, i32, ptr, ptr, ptr, ptr, ptr, ptr, ptr, ptr }
%struct.Vec_Int_t_ = type { i32, i32, ptr }

; Function Attrs: nounwind uwtable
define internal i32 @Ivy_IsComplement(ptr noundef %0) #0 {
  %2 = alloca ptr, align 8
  store ptr %0, ptr %2, align 8
  %3 = load ptr, ptr %2, align 8
  %4 = ptrtoint ptr %3 to i64
  %5 = and i64 %4, 1
  %6 = trunc i64 %5 to i32
  ret i32 %6
}

; Function Attrs: nounwind uwtable
define internal ptr @Ivy_Regular(ptr noundef %0) #0 {
  %2 = alloca ptr, align 8
  store ptr %0, ptr %2, align 8
  %3 = load ptr, ptr %2, align 8
  %4 = ptrtoint ptr %3 to i64
  %5 = and i64 %4, -2
  %6 = inttoptr i64 %5 to ptr
  ret ptr %6
}

; Function Attrs: nounwind uwtable
define internal ptr @Vec_IntArray(ptr noundef %0) #0 {
  %2 = alloca ptr, align 8
  store ptr %0, ptr %2, align 8
  %3 = load ptr, ptr %2, align 8
  %4 = getelementptr inbounds %struct.Vec_Int_t_, ptr %3, i32 0, i32 2
  %5 = load ptr, ptr %4, align 8
  ret ptr %5
}

; Function Attrs: nounwind uwtable
define internal i32 @Ivy_ObjFaninC1(ptr noundef %0) #0 {
  %2 = alloca ptr, align 8
  store ptr %0, ptr %2, align 8
  %3 = load ptr, ptr %2, align 8
  %4 = getelementptr inbounds %struct.Ivy_Obj_t_, ptr %3, i32 0, i32 5
  %5 = load ptr, ptr %4, align 8
  %6 = call i32 @Ivy_IsComplement(ptr noundef %5)
  ret i32 %6
}

; Function Attrs: nounwind uwtable
define internal i32 @Ivy_ObjFaninC0(ptr noundef %0) #0 {
  %2 = alloca ptr, align 8
  store ptr %0, ptr %2, align 8
  %3 = load ptr, ptr %2, align 8
  %4 = getelementptr inbounds %struct.Ivy_Obj_t_, ptr %3, i32 0, i32 4
  %5 = load ptr, ptr %4, align 8
  %6 = call i32 @Ivy_IsComplement(ptr noundef %5)
  ret i32 %6
}

; Function Attrs: nounwind uwtable
define internal i32 @Ivy_ObjIsExor(ptr noundef %0) #0 {
  %2 = alloca ptr, align 8
  store ptr %0, ptr %2, align 8
  %3 = load ptr, ptr %2, align 8
  %4 = getelementptr inbounds %struct.Ivy_Obj_t_, ptr %3, i32 0, i32 2
  %5 = load i32, ptr %4, align 8
  %6 = and i32 %5, 15
  %7 = icmp eq i32 %6, 6
  %8 = zext i1 %7 to i32
  ret i32 %8
}

; Function Attrs: nounwind uwtable
define internal ptr @Ivy_ObjFanin1(ptr noundef %0) #0 {
  %2 = alloca ptr, align 8
  store ptr %0, ptr %2, align 8
  %3 = load ptr, ptr %2, align 8
  %4 = getelementptr inbounds %struct.Ivy_Obj_t_, ptr %3, i32 0, i32 5
  %5 = load ptr, ptr %4, align 8
  %6 = call ptr @Ivy_Regular(ptr noundef %5)
  ret ptr %6
}

; Function Attrs: nounwind uwtable
define internal ptr @Ivy_ObjFanin0(ptr noundef %0) #0 {
  %2 = alloca ptr, align 8
  store ptr %0, ptr %2, align 8
  %3 = load ptr, ptr %2, align 8
  %4 = getelementptr inbounds %struct.Ivy_Obj_t_, ptr %3, i32 0, i32 4
  %5 = load ptr, ptr %4, align 8
  %6 = call ptr @Ivy_Regular(ptr noundef %5)
  ret ptr %6
}

; Function Attrs: nounwind uwtable
define ptr @Ivy_ObjGetTruthStore(i32 noundef %0, ptr noundef %1) #0 {
  %3 = alloca i32, align 4
  %4 = alloca ptr, align 8
  store i32 %0, ptr %3, align 4
  store ptr %1, ptr %4, align 8
  %5 = load ptr, ptr %4, align 8
  %6 = call ptr @Vec_IntArray(ptr noundef %5)
  %7 = load i32, ptr %3, align 4
  %8 = mul nsw i32 8, %7
  %9 = sext i32 %8 to i64
  %10 = getelementptr inbounds i32, ptr %6, i64 %9
  ret ptr %10
}

; Function Attrs: nounwind uwtable
define void @Ivy_ManCutTruthOne(ptr noundef %0, ptr noundef %1, ptr noundef %2, i32 noundef %3) #0 {
  %5 = alloca ptr, align 8
  %6 = alloca ptr, align 8
  %7 = alloca ptr, align 8
  %8 = alloca i32, align 4
  %9 = alloca ptr, align 8
  %10 = alloca ptr, align 8
  %11 = alloca ptr, align 8
  %12 = alloca i32, align 4
  store ptr %0, ptr %5, align 8
  store ptr %1, ptr %6, align 8
  store ptr %2, ptr %7, align 8
  store i32 %3, ptr %8, align 4
  %13 = load ptr, ptr %6, align 8
  %14 = getelementptr inbounds %struct.Ivy_Obj_t_, ptr %13, i32 0, i32 1
  %15 = load i32, ptr %14, align 4
  %16 = load ptr, ptr %7, align 8
  %17 = call ptr @Ivy_ObjGetTruthStore(i32 noundef %15, ptr noundef %16)
  store ptr %17, ptr %9, align 8
  %18 = load ptr, ptr %6, align 8
  %19 = call ptr @Ivy_ObjFanin0(ptr noundef %18)
  %20 = getelementptr inbounds %struct.Ivy_Obj_t_, ptr %19, i32 0, i32 1
  %21 = load i32, ptr %20, align 4
  %22 = load ptr, ptr %7, align 8
  %23 = call ptr @Ivy_ObjGetTruthStore(i32 noundef %21, ptr noundef %22)
  store ptr %23, ptr %10, align 8
  %24 = load ptr, ptr %6, align 8
  %25 = call ptr @Ivy_ObjFanin1(ptr noundef %24)
  %26 = getelementptr inbounds %struct.Ivy_Obj_t_, ptr %25, i32 0, i32 1
  %27 = load i32, ptr %26, align 4
  %28 = load ptr, ptr %7, align 8
  %29 = call ptr @Ivy_ObjGetTruthStore(i32 noundef %27, ptr noundef %28)
  store ptr %29, ptr %11, align 8
  %30 = load ptr, ptr %6, align 8
  %31 = call i32 @Ivy_ObjIsExor(ptr noundef %30)
  %32 = icmp ne i32 %31, 0
  br i1 %32, label %33, label %58

33:                                               ; preds = %4
  store i32 0, ptr %12, align 4
  br label %34

34:                                               ; preds = %54, %33
  %35 = load i32, ptr %12, align 4
  %36 = load i32, ptr %8, align 4
  %37 = icmp slt i32 %35, %36
  br i1 %37, label %38, label %57

38:                                               ; preds = %34
  %39 = load ptr, ptr %10, align 8
  %40 = load i32, ptr %12, align 4
  %41 = sext i32 %40 to i64
  %42 = getelementptr inbounds i32, ptr %39, i64 %41
  %43 = load i32, ptr %42, align 4
  %44 = load ptr, ptr %11, align 8
  %45 = load i32, ptr %12, align 4
  %46 = sext i32 %45 to i64
  %47 = getelementptr inbounds i32, ptr %44, i64 %46
  %48 = load i32, ptr %47, align 4
  %49 = xor i32 %43, %48
  %50 = load ptr, ptr %9, align 8
  %51 = load i32, ptr %12, align 4
  %52 = sext i32 %51 to i64
  %53 = getelementptr inbounds i32, ptr %50, i64 %52
  store i32 %49, ptr %53, align 4
  br label %54

54:                                               ; preds = %38
  %55 = load i32, ptr %12, align 4
  %56 = add nsw i32 %55, 1
  store i32 %56, ptr %12, align 4
  br label %34, !llvm.loop !8

57:                                               ; preds = %34
  br label %189

58:                                               ; preds = %4
  %59 = load ptr, ptr %6, align 8
  %60 = call i32 @Ivy_ObjFaninC0(ptr noundef %59)
  %61 = icmp ne i32 %60, 0
  br i1 %61, label %91, label %62

62:                                               ; preds = %58
  %63 = load ptr, ptr %6, align 8
  %64 = call i32 @Ivy_ObjFaninC1(ptr noundef %63)
  %65 = icmp ne i32 %64, 0
  br i1 %65, label %91, label %66

66:                                               ; preds = %62
  store i32 0, ptr %12, align 4
  br label %67

67:                                               ; preds = %87, %66
  %68 = load i32, ptr %12, align 4
  %69 = load i32, ptr %8, align 4
  %70 = icmp slt i32 %68, %69
  br i1 %70, label %71, label %90

71:                                               ; preds = %67
  %72 = load ptr, ptr %10, align 8
  %73 = load i32, ptr %12, align 4
  %74 = sext i32 %73 to i64
  %75 = getelementptr inbounds i32, ptr %72, i64 %74
  %76 = load i32, ptr %75, align 4
  %77 = load ptr, ptr %11, align 8
  %78 = load i32, ptr %12, align 4
  %79 = sext i32 %78 to i64
  %80 = getelementptr inbounds i32, ptr %77, i64 %79
  %81 = load i32, ptr %80, align 4
  %82 = and i32 %76, %81
  %83 = load ptr, ptr %9, align 8
  %84 = load i32, ptr %12, align 4
  %85 = sext i32 %84 to i64
  %86 = getelementptr inbounds i32, ptr %83, i64 %85
  store i32 %82, ptr %86, align 4
  br label %87

87:                                               ; preds = %71
  %88 = load i32, ptr %12, align 4
  %89 = add nsw i32 %88, 1
  store i32 %89, ptr %12, align 4
  br label %67, !llvm.loop !9

90:                                               ; preds = %67
  br label %188

91:                                               ; preds = %62, %58
  %92 = load ptr, ptr %6, align 8
  %93 = call i32 @Ivy_ObjFaninC0(ptr noundef %92)
  %94 = icmp ne i32 %93, 0
  br i1 %94, label %125, label %95

95:                                               ; preds = %91
  %96 = load ptr, ptr %6, align 8
  %97 = call i32 @Ivy_ObjFaninC1(ptr noundef %96)
  %98 = icmp ne i32 %97, 0
  br i1 %98, label %99, label %125

99:                                               ; preds = %95
  store i32 0, ptr %12, align 4
  br label %100

100:                                              ; preds = %121, %99
  %101 = load i32, ptr %12, align 4
  %102 = load i32, ptr %8, align 4
  %103 = icmp slt i32 %101, %102
  br i1 %103, label %104, label %124

104:                                              ; preds = %100
  %105 = load ptr, ptr %10, align 8
  %106 = load i32, ptr %12, align 4
  %107 = sext i32 %106 to i64
  %108 = getelementptr inbounds i32, ptr %105, i64 %107
  %109 = load i32, ptr %108, align 4
  %110 = load ptr, ptr %11, align 8
  %111 = load i32, ptr %12, align 4
  %112 = sext i32 %111 to i64
  %113 = getelementptr inbounds i32, ptr %110, i64 %112
  %114 = load i32, ptr %113, align 4
  %115 = xor i32 %114, -1
  %116 = and i32 %109, %115
  %117 = load ptr, ptr %9, align 8
  %118 = load i32, ptr %12, align 4
  %119 = sext i32 %118 to i64
  %120 = getelementptr inbounds i32, ptr %117, i64 %119
  store i32 %116, ptr %120, align 4
  br label %121

121:                                              ; preds = %104
  %122 = load i32, ptr %12, align 4
  %123 = add nsw i32 %122, 1
  store i32 %123, ptr %12, align 4
  br label %100, !llvm.loop !10

124:                                              ; preds = %100
  br label %187

125:                                              ; preds = %95, %91
  %126 = load ptr, ptr %6, align 8
  %127 = call i32 @Ivy_ObjFaninC0(ptr noundef %126)
  %128 = icmp ne i32 %127, 0
  br i1 %128, label %129, label %159

129:                                              ; preds = %125
  %130 = load ptr, ptr %6, align 8
  %131 = call i32 @Ivy_ObjFaninC1(ptr noundef %130)
  %132 = icmp ne i32 %131, 0
  br i1 %132, label %159, label %133

133:                                              ; preds = %129
  store i32 0, ptr %12, align 4
  br label %134

134:                                              ; preds = %155, %133
  %135 = load i32, ptr %12, align 4
  %136 = load i32, ptr %8, align 4
  %137 = icmp slt i32 %135, %136
  br i1 %137, label %138, label %158

138:                                              ; preds = %134
  %139 = load ptr, ptr %10, align 8
  %140 = load i32, ptr %12, align 4
  %141 = sext i32 %140 to i64
  %142 = getelementptr inbounds i32, ptr %139, i64 %141
  %143 = load i32, ptr %142, align 4
  %144 = xor i32 %143, -1
  %145 = load ptr, ptr %11, align 8
  %146 = load i32, ptr %12, align 4
  %147 = sext i32 %146 to i64
  %148 = getelementptr inbounds i32, ptr %145, i64 %147
  %149 = load i32, ptr %148, align 4
  %150 = and i32 %144, %149
  %151 = load ptr, ptr %9, align 8
  %152 = load i32, ptr %12, align 4
  %153 = sext i32 %152 to i64
  %154 = getelementptr inbounds i32, ptr %151, i64 %153
  store i32 %150, ptr %154, align 4
  br label %155

155:                                              ; preds = %138
  %156 = load i32, ptr %12, align 4
  %157 = add nsw i32 %156, 1
  store i32 %157, ptr %12, align 4
  br label %134, !llvm.loop !11

158:                                              ; preds = %134
  br label %186

159:                                              ; preds = %129, %125
  store i32 0, ptr %12, align 4
  br label %160

160:                                              ; preds = %182, %159
  %161 = load i32, ptr %12, align 4
  %162 = load i32, ptr %8, align 4
  %163 = icmp slt i32 %161, %162
  br i1 %163, label %164, label %185

164:                                              ; preds = %160
  %165 = load ptr, ptr %10, align 8
  %166 = load i32, ptr %12, align 4
  %167 = sext i32 %166 to i64
  %168 = getelementptr inbounds i32, ptr %165, i64 %167
  %169 = load i32, ptr %168, align 4
  %170 = xor i32 %169, -1
  %171 = load ptr, ptr %11, align 8
  %172 = load i32, ptr %12, align 4
  %173 = sext i32 %172 to i64
  %174 = getelementptr inbounds i32, ptr %171, i64 %173
  %175 = load i32, ptr %174, align 4
  %176 = xor i32 %175, -1
  %177 = and i32 %170, %176
  %178 = load ptr, ptr %9, align 8
  %179 = load i32, ptr %12, align 4
  %180 = sext i32 %179 to i64
  %181 = getelementptr inbounds i32, ptr %178, i64 %180
  store i32 %177, ptr %181, align 4
  br label %182

182:                                              ; preds = %164
  %183 = load i32, ptr %12, align 4
  %184 = add nsw i32 %183, 1
  store i32 %184, ptr %12, align 4
  br label %160, !llvm.loop !12

185:                                              ; preds = %160
  br label %186

186:                                              ; preds = %185, %158
  br label %187

187:                                              ; preds = %186, %124
  br label %188

188:                                              ; preds = %187, %90
  br label %189

189:                                              ; preds = %188, %57
  ret void
}