; Function Attrs: nofree norecurse nosync nounwind memory(readwrite, inaccessiblemem: none) uwtable
define void @Ivy_ManCutTruthOne(ptr readnone captures(none) %0, ptr noundef readonly captures(none) %1, ptr noundef readonly captures(none) %2, i32 noundef %3) local_unnamed_addr #0 {
  %5 = getelementptr inbounds nuw i8, ptr %1, i64 4
  %6 = load i32, ptr %5, align 4
  %7 = getelementptr i8, ptr %2, i64 8
  %.val.i = load ptr, ptr %7, align 8
  %8 = shl nsw i32 %6, 3
  %9 = sext i32 %8 to i64
  %10 = getelementptr inbounds i32, ptr %.val.i, i64 %9
  %11 = getelementptr i8, ptr %1, i64 16
  %.val = load ptr, ptr %11, align 8
  %12 = ptrtoint ptr %.val to i64
  %13 = and i64 %12, -2
  %14 = inttoptr i64 %13 to ptr
  %15 = getelementptr inbounds nuw i8, ptr %14, i64 4
  %16 = load i32, ptr %15, align 4
  %17 = shl nsw i32 %16, 3
  %18 = sext i32 %17 to i64
  %19 = getelementptr inbounds i32, ptr %.val.i, i64 %18
  %20 = getelementptr i8, ptr %1, i64 24
  %.val63 = load ptr, ptr %20, align 8
  %21 = ptrtoint ptr %.val63 to i64
  %22 = and i64 %21, -2
  %23 = inttoptr i64 %22 to ptr
  %24 = getelementptr inbounds nuw i8, ptr %23, i64 4
  %25 = load i32, ptr %24, align 4
  %26 = shl nsw i32 %25, 3
  %27 = sext i32 %26 to i64
  %28 = getelementptr inbounds i32, ptr %.val.i, i64 %27
  %29 = getelementptr i8, ptr %1, i64 8
  %.val64 = load i32, ptr %29, align 8
  %30 = and i32 %.val64, 15
  %.not = icmp eq i32 %30, 6
  br i1 %.not, label %.preheader, label %38

.preheader:                                       ; preds = %4
  %31 = icmp sgt i32 %3, 0
  br i1 %31, label %.lr.ph89.preheader, label %.loopexit

.lr.ph89.preheader:                               ; preds = %.preheader
  %wide.trip.count114 = zext nneg i32 %3 to i64
  br label %.lr.ph89

.lr.ph89:                                         ; preds = %.lr.ph89.preheader, %.lr.ph89
  %indvars.iv111 = phi i64 [ 0, %.lr.ph89.preheader ], [ %indvars.iv.next112, %.lr.ph89 ]
  %32 = getelementptr inbounds nuw i32, ptr %19, i64 %indvars.iv111
  %33 = load i32, ptr %32, align 4
  %34 = getelementptr inbounds nuw i32, ptr %28, i64 %indvars.iv111
  %35 = load i32, ptr %34, align 4
  %36 = xor i32 %35, %33
  %37 = getelementptr inbounds nuw i32, ptr %10, i64 %indvars.iv111
  store i32 %36, ptr %37, align 4
  %indvars.iv.next112 = add nuw nsw i64 %indvars.iv111, 1
  %exitcond115.not = icmp eq i64 %indvars.iv.next112, %wide.trip.count114
  br i1 %exitcond115.not, label %.loopexit, label %.lr.ph89, !llvm.loop !8

38:                                               ; preds = %4
  %39 = and i64 %12, 1
  %.not57 = icmp eq i64 %39, 0
  %40 = and i64 %21, 1
  %.not58 = icmp eq i64 %40, 0
  %41 = icmp sgt i32 %3, 0
  br i1 %.not57, label %42, label %56

42:                                               ; preds = %38
  br i1 %.not58, label %.preheader74, label %.preheader76

.preheader76:                                     ; preds = %42
  br i1 %41, label %.lr.ph85.preheader, label %.loopexit

.lr.ph85.preheader:                               ; preds = %.preheader76
  %wide.trip.count104 = zext nneg i32 %3 to i64
  br label %.lr.ph85

.preheader74:                                     ; preds = %42
  br i1 %41, label %.lr.ph87.preheader, label %.loopexit

.lr.ph87.preheader:                               ; preds = %.preheader74
  %wide.trip.count109 = zext nneg i32 %3 to i64
  br label %.lr.ph87

.lr.ph87:                                         ; preds = %.lr.ph87.preheader, %.lr.ph87
  %indvars.iv106 = phi i64 [ 0, %.lr.ph87.preheader ], [ %indvars.iv.next107, %.lr.ph87 ]
  %43 = getelementptr inbounds nuw i32, ptr %19, i64 %indvars.iv106
  %44 = load i32, ptr %43, align 4
  %45 = getelementptr inbounds nuw i32, ptr %28, i64 %indvars.iv106
  %46 = load i32, ptr %45, align 4
  %47 = and i32 %46, %44
  %48 = getelementptr inbounds nuw i32, ptr %10, i64 %indvars.iv106
  store i32 %47, ptr %48, align 4
  %indvars.iv.next107 = add nuw nsw i64 %indvars.iv106, 1
  %exitcond110.not = icmp eq i64 %indvars.iv.next107, %wide.trip.count109
  br i1 %exitcond110.not, label %.loopexit, label %.lr.ph87, !llvm.loop !9

.lr.ph85:                                         ; preds = %.lr.ph85.preheader, %.lr.ph85
  %indvars.iv101 = phi i64 [ 0, %.lr.ph85.preheader ], [ %indvars.iv.next102, %.lr.ph85 ]
  %49 = getelementptr inbounds nuw i32, ptr %19, i64 %indvars.iv101
  %50 = load i32, ptr %49, align 4
  %51 = getelementptr inbounds nuw i32, ptr %28, i64 %indvars.iv101
  %52 = load i32, ptr %51, align 4
  %53 = xor i32 %52, -1
  %54 = and i32 %50, %53
  %55 = getelementptr inbounds nuw i32, ptr %10, i64 %indvars.iv101
  store i32 %54, ptr %55, align 4
  %indvars.iv.next102 = add nuw nsw i64 %indvars.iv101, 1
  %exitcond105.not = icmp eq i64 %indvars.iv.next102, %wide.trip.count104
  br i1 %exitcond105.not, label %.loopexit, label %.lr.ph85, !llvm.loop !10

56:                                               ; preds = %38
  br i1 %.not58, label %.preheader78, label %.thread73.preheader

.thread73.preheader:                              ; preds = %56
  br i1 %41, label %.thread73.preheader93, label %.loopexit

.thread73.preheader93:                            ; preds = %.thread73.preheader
  %wide.trip.count = zext nneg i32 %3 to i64
  br label %.thread73

.preheader78:                                     ; preds = %56
  br i1 %41, label %.lr.ph83.preheader, label %.loopexit

.lr.ph83.preheader:                               ; preds = %.preheader78
  %wide.trip.count99 = zext nneg i32 %3 to i64
  br label %.lr.ph83

.lr.ph83:                                         ; preds = %.lr.ph83.preheader, %.lr.ph83
  %indvars.iv96 = phi i64 [ 0, %.lr.ph83.preheader ], [ %indvars.iv.next97, %.lr.ph83 ]
  %57 = getelementptr inbounds nuw i32, ptr %19, i64 %indvars.iv96
  %58 = load i32, ptr %57, align 4
  %59 = xor i32 %58, -1
  %60 = getelementptr inbounds nuw i32, ptr %28, i64 %indvars.iv96
  %61 = load i32, ptr %60, align 4
  %62 = and i32 %61, %59
  %63 = getelementptr inbounds nuw i32, ptr %10, i64 %indvars.iv96
  store i32 %62, ptr %63, align 4
  %indvars.iv.next97 = add nuw nsw i64 %indvars.iv96, 1
  %exitcond100.not = icmp eq i64 %indvars.iv.next97, %wide.trip.count99
  br i1 %exitcond100.not, label %.loopexit, label %.lr.ph83, !llvm.loop !11

.thread73:                                        ; preds = %.thread73.preheader93, %.thread73
  %indvars.iv = phi i64 [ 0, %.thread73.preheader93 ], [ %indvars.iv.next, %.thread73 ]
  %64 = getelementptr inbounds nuw i32, ptr %19, i64 %indvars.iv
  %65 = load i32, ptr %64, align 4
  %66 = getelementptr inbounds nuw i32, ptr %28, i64 %indvars.iv
  %67 = load i32, ptr %66, align 4
  %.demorgan = or i32 %67, %65
  %68 = xor i32 %.demorgan, -1
  %69 = getelementptr inbounds nuw i32, ptr %10, i64 %indvars.iv
  store i32 %68, ptr %69, align 4
  %indvars.iv.next = add nuw nsw i64 %indvars.iv, 1
  %exitcond.not = icmp eq i64 %indvars.iv.next, %wide.trip.count
  br i1 %exitcond.not, label %.loopexit, label %.thread73, !llvm.loop !12

.loopexit:                                        ; preds = %.thread73, %.lr.ph83, %.lr.ph85, %.lr.ph87, %.lr.ph89, %.thread73.preheader, %.preheader78, %.preheader76, %.preheader74, %.preheader
  ret void
}